target datalayout = "e-m:e-p270:32:32-p271:32:32-p272:64:64-i64:64-i128:128-f80:128-n8:16:32:64-S128"
target triple = "x86_64-pc-linux-gnu"

@bio_err = external global ptr, align 8
@v_verbose = internal global i32 0, align 4
@.str.124 = private unnamed_addr constant [2 x i8] c"\0A\00", align 1
@.str.126 = private unnamed_addr constant [35 x i8] c"%serror %d at %d depth lookup: %s\0A\00", align 1
@.str.127 = private unnamed_addr constant [12 x i8] c"[CRL path] \00", align 1
@.str.128 = private unnamed_addr constant [1 x i8] zeroinitializer, align 1

; Function Attrs: nounwind uwtable
define internal i32 @cb(i32 noundef %0, ptr noundef %1) #0 {
  %3 = alloca i32, align 4
  %4 = alloca i32, align 4
  %5 = alloca ptr, align 8
  %6 = alloca i32, align 4
  %7 = alloca ptr, align 8
  %8 = alloca i32, align 4
  store i32 %0, ptr %4, align 4, !tbaa !4
  store ptr %1, ptr %5, align 8, !tbaa !34
  call void @llvm.lifetime.start.p0(i64 4, ptr %6) #4
  %9 = load ptr, ptr %5, align 8, !tbaa !34
  %10 = call i32 @X509_STORE_CTX_get_error(ptr noundef %9)
  store i32 %10, ptr %6, align 4, !tbaa !4
  call void @llvm.lifetime.start.p0(i64 8, ptr %7) #4
  %11 = load ptr, ptr %5, align 8, !tbaa !34
  %12 = call ptr @X509_STORE_CTX_get_current_cert(ptr noundef %11)
  store ptr %12, ptr %7, align 8, !tbaa !36
  %13 = load i32, ptr %4, align 4, !tbaa !4
  %14 = icmp ne i32 %13, 0
  br i1 %14, label %45, label %15

15:                                               ; preds = %2
  %16 = load ptr, ptr %7, align 8, !tbaa !36
  %17 = icmp ne ptr %16, null
  br i1 %17, label %18, label %26

18:                                               ; preds = %15
  %19 = load ptr, ptr @bio_err, align 8, !tbaa !25
  %20 = load ptr, ptr %7, align 8, !tbaa !36
  %21 = call ptr @X509_get_subject_name(ptr noundef %20)
  %22 = call i64 @get_nameopt()
  %23 = call i32 @X509_NAME_print_ex(ptr noundef %19, ptr noundef %21, i32 noundef 0, i64 noundef %22)
  %24 = load ptr, ptr @bio_err, align 8, !tbaa !25
  %25 = call i32 (ptr, ptr, ...) @BIO_printf(ptr noundef %24, ptr noundef @.str.124)
  br label %26

26:                                               ; preds = %18, %15
  %27 = load ptr, ptr @bio_err, align 8, !tbaa !25
  %28 = load ptr, ptr %5, align 8, !tbaa !34
  %29 = call ptr @X509_STORE_CTX_get0_parent_ctx(ptr noundef %28)
  %30 = icmp ne ptr %29, null
  %31 = select i1 %30, ptr @.str.127, ptr @.str.128
  %32 = load i32, ptr %6, align 4, !tbaa !4
  %33 = load ptr, ptr %5, align 8, !tbaa !34
  %34 = call i32 @X509_STORE_CTX_get_error_depth(ptr noundef %33)
  %35 = load i32, ptr %6, align 4, !tbaa !4
  %36 = sext i32 %35 to i64
  %37 = call ptr @X509_verify_cert_error_string(i64 noundef %36)
  %38 = call i32 (ptr, ptr, ...) @BIO_printf(ptr noundef %27, ptr noundef @.str.126, ptr noundef %31, i32 noundef %32, i32 noundef %34, ptr noundef %37)
  %39 = load i32, ptr %6, align 4, !tbaa !4
  switch i32 %39, label %43 [
    i32 43, label %40
    i32 10, label %42
    i32 18, label %42
    i32 79, label %42
    i32 37, label %42
    i32 25, label %42
    i32 12, label %42
    i32 11, label %42
    i32 34, label %42
    i32 26, label %42
    i32 80, label %42
    i32 81, label %42
    i32 89, label %42
    i32 92, label %42
    i32 82, label %42
    i32 83, label %42
    i32 84, label %42
    i32 88, label %42
    i32 87, label %42
    i32 78, label %42
    i32 90, label %42
    i32 91, label %42
    i32 85, label %42
    i32 86, label %42
    i32 93, label %42
  ]

40:                                               ; preds = %26
  %41 = load ptr, ptr %5, align 8, !tbaa !34
  call void @policies_print(ptr noundef %41)
  br label %42

42:                                               ; preds = %26, %26, %26, %26, %26, %26, %26, %26, %26, %26, %26, %26, %26, %26, %26, %26, %26, %26, %26, %26, %26, %26, %26, %26, %40
  store i32 1, ptr %4, align 4, !tbaa !4
  br label %43

43:                                               ; preds = %42, %26
  %44 = load i32, ptr %4, align 4, !tbaa !4
  store i32 %44, ptr %3, align 4
  store i32 1, ptr %8, align 4
  br label %59

45:                                               ; preds = %2
  %46 = load i32, ptr %6, align 4, !tbaa !4
  %47 = icmp eq i32 %46, 0
  br i1 %47, label %48, label %53

48:                                               ; preds = %45
  %49 = load i32, ptr %4, align 4, !tbaa !4
  %50 = icmp eq i32 %49, 2
  br i1 %50, label %51, label %53

51:                                               ; preds = %48
  %52 = load ptr, ptr %5, align 8, !tbaa !34
  call void @policies_print(ptr noundef %52)
  br label %53

53:                                               ; preds = %51, %48, %45
  %54 = load i32, ptr @v_verbose, align 4, !tbaa !4
  %55 = icmp ne i32 %54, 0
  br i1 %55, label %57, label %56

56:                                               ; preds = %53
  call void @ERR_clear_error()
  br label %57

57:                                               ; preds = %56, %53
  %58 = load i32, ptr %4, align 4, !tbaa !4
  store i32 %58, ptr %3, align 4
  store i32 1, ptr %8, align 4
  br label %59

59:                                               ; preds = %57, %43
  call void @llvm.lifetime.end.p0(i64 8, ptr %7) #4
  call void @llvm.lifetime.end.p0(i64 4, ptr %6) #4
  %60 = load i32, ptr %3, align 4
  ret i32 %60
}