; Function Attrs: nounwind uwtable
define internal noundef i32 @cb(i32 noundef %0, ptr noundef %1) #0 {
  %3 = tail call i32 @X509_STORE_CTX_get_error(ptr noundef %1) #3
  %4 = tail call ptr @X509_STORE_CTX_get_current_cert(ptr noundef %1) #3
  %.not = icmp eq i32 %0, 0
  br i1 %.not, label %5, label %23

5:                                                ; preds = %2
  %.not20 = icmp eq ptr %4, null
  br i1 %.not20, label %13, label %6

6:                                                ; preds = %5
  %7 = load ptr, ptr @bio_err, align 8, !tbaa !13
  %8 = tail call ptr @X509_get_subject_name(ptr noundef nonnull %4) #3
  %9 = tail call i64 @get_nameopt() #3
  %10 = tail call i32 @X509_NAME_print_ex(ptr noundef %7, ptr noundef %8, i32 noundef 0, i64 noundef %9) #3
  %11 = load ptr, ptr @bio_err, align 8, !tbaa !13
  %12 = tail call i32 (ptr, ptr, ...) @BIO_printf(ptr noundef %11, ptr noundef nonnull @.str.124) #3
  br label %13

13:                                               ; preds = %6, %5
  %14 = load ptr, ptr @bio_err, align 8, !tbaa !13
  %15 = tail call ptr @X509_STORE_CTX_get0_parent_ctx(ptr noundef %1) #3
  %.not21 = icmp eq ptr %15, null
  %16 = select i1 %.not21, ptr @.str.128, ptr @.str.127
  %17 = tail call i32 @X509_STORE_CTX_get_error_depth(ptr noundef %1) #3
  %18 = sext i32 %3 to i64
  %19 = tail call ptr @X509_verify_cert_error_string(i64 noundef %18) #3
  %20 = tail call i32 (ptr, ptr, ...) @BIO_printf(ptr noundef %14, ptr noundef nonnull @.str.126, ptr noundef nonnull %16, i32 noundef %3, i32 noundef %17, ptr noundef %19) #3
  switch i32 %3, label %29 [
    i32 43, label %21
    i32 10, label %22
    i32 18, label %22
    i32 79, label %22
    i32 37, label %22
    i32 25, label %22
    i32 12, label %22
    i32 11, label %22
    i32 34, label %22
    i32 26, label %22
    i32 80, label %22
    i32 81, label %22
    i32 89, label %22
    i32 92, label %22
    i32 82, label %22
    i32 83, label %22
    i32 84, label %22
    i32 88, label %22
    i32 87, label %22
    i32 78, label %22
    i32 90, label %22
    i32 91, label %22
    i32 85, label %22
    i32 86, label %22
    i32 93, label %22
  ]

21:                                               ; preds = %13
  tail call void @policies_print(ptr noundef %1) #3
  br label %22

22:                                               ; preds = %21, %13, %13, %13, %13, %13, %13, %13, %13, %13, %13, %13, %13, %13, %13, %13, %13, %13, %13, %13, %13, %13, %13, %13, %13
  br label %29

23:                                               ; preds = %2
  %24 = icmp eq i32 %3, 0
  %25 = icmp eq i32 %0, 2
  %or.cond = and i1 %25, %24
  br i1 %or.cond, label %26, label %27

26:                                               ; preds = %23
  tail call void @policies_print(ptr noundef %1) #3
  br label %27

27:                                               ; preds = %26, %23
  %.b = load i1, ptr @v_verbose, align 4
  br i1 %.b, label %29, label %28

28:                                               ; preds = %27
  tail call void @ERR_clear_error() #3
  br label %29

29:                                               ; preds = %27, %28, %13, %22
  %.0 = phi i32 [ 0, %13 ], [ 1, %22 ], [ %0, %28 ], [ %0, %27 ]
  ret i32 %.0
}